target datalayout = "e-m:e-p270:32:32-p271:32:32-p272:64:64-i64:64-i128:128-f80:128-n8:16:32:64-S128"
target triple = "x86_64-pc-linux-gnu"

; Function Attrs: nounwind uwtable
define i32 @stb_mod_floor(i32 noundef %0, i32 noundef %1) #0 {
  %3 = alloca i32, align 4
  %4 = alloca i32, align 4
  %5 = alloca i32, align 4
  %6 = alloca i32, align 4
  %7 = alloca i32, align 4
  %8 = alloca i32, align 4
  store i32 %0, ptr %4, align 4, !tbaa !3
  store i32 %1, ptr %5, align 4, !tbaa !3
  %9 = load i32, ptr %5, align 4, !tbaa !3
  %10 = icmp sge i32 %9, 0
  br i1 %10, label %11, label %24

11:                                               ; preds = %2
  call void @llvm.lifetime.start.p0(i64 4, ptr %6) #2
  %12 = load i32, ptr %4, align 4, !tbaa !3
  %13 = load i32, ptr %5, align 4, !tbaa !3
  %14 = srem i32 %12, %13
  store i32 %14, ptr %6, align 4, !tbaa !3
  %15 = load i32, ptr %6, align 4, !tbaa !3
  %16 = icmp sge i32 %15, 0
  br i1 %16, label %17, label %19

17:                                               ; preds = %11
  %18 = load i32, ptr %6, align 4, !tbaa !3
  store i32 %18, ptr %3, align 4
  store i32 1, ptr %7, align 4
  br label %23

19:                                               ; preds = %11
  %20 = load i32, ptr %6, align 4, !tbaa !3
  %21 = load i32, ptr %5, align 4, !tbaa !3
  %22 = add nsw i32 %20, %21
  store i32 %22, ptr %3, align 4
  store i32 1, ptr %7, align 4
  br label %23

23:                                               ; preds = %19, %17
  call void @llvm.lifetime.end.p0(i64 4, ptr %6) #2
  br label %37

24:                                               ; preds = %2
  call void @llvm.lifetime.start.p0(i64 4, ptr %8) #2
  %25 = load i32, ptr %4, align 4, !tbaa !3
  %26 = load i32, ptr %5, align 4, !tbaa !3
  %27 = srem i32 %25, %26
  store i32 %27, ptr %8, align 4, !tbaa !3
  %28 = load i32, ptr %8, align 4, !tbaa !3
  %29 = icmp sle i32 %28, 0
  br i1 %29, label %30, label %32

30:                                               ; preds = %24
  %31 = load i32, ptr %8, align 4, !tbaa !3
  store i32 %31, ptr %3, align 4
  store i32 1, ptr %7, align 4
  br label %36

32:                                               ; preds = %24
  %33 = load i32, ptr %8, align 4, !tbaa !3
  %34 = load i32, ptr %5, align 4, !tbaa !3
  %35 = add nsw i32 %33, %34
  store i32 %35, ptr %3, align 4
  store i32 1, ptr %7, align 4
  br label %36

36:                                               ; preds = %32, %30
  call void @llvm.lifetime.end.p0(i64 4, ptr %8) #2
  br label %37

37:                                               ; preds = %36, %23
  %38 = load i32, ptr %3, align 4
  ret i32 %38
}