; Function Attrs: mustprogress nofree norecurse nosync nounwind willreturn memory(none) uwtable
define range(i32 -2147483647, 2147483647) i32 @stb_mod_floor(i32 noundef %0, i32 noundef %1) local_unnamed_addr #0 {
  %3 = srem i32 %0, %1
  %.inv = icmp sgt i32 %3, 0
  %4 = icmp slt i32 %3, 0
  %5 = icmp slt i32 %1, 0
  %.inv.sink = select i1 %5, i1 %.inv, i1 %4
  %6 = select i1 %.inv.sink, i32 %1, i32 0
  %.2 = add nsw i32 %6, %3
  ret i32 %.2
}